target datalayout = "e-m:e-p270:32:32-p271:32:32-p272:64:64-i64:64-i128:128-f80:128-n8:16:32:64-S128"
target triple = "x86_64-unknown-linux-gnu"

%"class.std::set.0" = type { %"class.std::_Rb_tree.1" }
%"class.std::_Rb_tree.1" = type { %"struct.std::_Rb_tree<QuantLib::Observer *, QuantLib::Observer *, std::_Identity<QuantLib::Observer *>, std::less<QuantLib::Observer *>>::_Rb_tree_impl" }
%"struct.std::_Rb_tree<QuantLib::Observer *, QuantLib::Observer *, std::_Identity<QuantLib::Observer *>, std::less<QuantLib::Observer *>>::_Rb_tree_impl" = type { [8 x i8], %"struct.std::_Rb_tree_header" }
%"struct.std::_Rb_tree_header" = type { %"struct.std::_Rb_tree_node_base", i64 }
%"struct.std::_Rb_tree_node_base" = type { i32, ptr, ptr, ptr }
%"class.QuantLib::Date" = type { i64 }
%"class.boost::detail::shared_count" = type { ptr }
%"class.std::set" = type { %"class.std::_Rb_tree" }
%"class.std::_Rb_tree" = type { %"struct.std::_Rb_tree<boost::shared_ptr<QuantLib::Observable>, boost::shared_ptr<QuantLib::Observable>, std::_Identity<boost::shared_ptr<QuantLib::Observable>>, std::less<boost::shared_ptr<QuantLib::Observable>>>::_Rb_tree_impl" }
%"struct.std::_Rb_tree<boost::shared_ptr<QuantLib::Observable>, boost::shared_ptr<QuantLib::Observable>, std::_Identity<boost::shared_ptr<QuantLib::Observable>>, std::less<boost::shared_ptr<QuantLib::Observable>>>::_Rb_tree_impl" = type { [8 x i8], %"struct.std::_Rb_tree_header" }
%"class.QuantLib::Observable" = type { ptr, %"class.std::set.0" }
%"class.QuantLib::DayCounter" = type { %"class.boost::shared_ptr.16" }
%"class.boost::shared_ptr.16" = type { ptr, %"class.boost::detail::shared_count" }
%"class.QuantLib::Handle.57" = type { %"class.boost::shared_ptr.58" }
%"class.boost::shared_ptr.58" = type { ptr, %"class.boost::detail::shared_count" }
%"class.boost::shared_ptr.61" = type { ptr, %"class.boost::detail::shared_count" }
%"class.QuantLib::LognormalCmsSpreadPricer" = type { %"class.QuantLib::CmsSpreadCouponPricer.base", %"class.boost::shared_ptr.59", %"class.QuantLib::Handle", ptr, %"class.QuantLib::Date", %"class.QuantLib::Date", %"class.QuantLib::Date", double, double, double, double, double, %"class.boost::shared_ptr.60", %"class.boost::shared_ptr.61", %"class.boost::shared_ptr.62", double, double, double, double, double, double, double, double, double, double, double, i8, i32, double, double, double, double, double, double, double, double, double, double, double, double, double, double, i32, %"class.boost::shared_ptr.63", %"class.boost::shared_ptr.63", %"class.QuantLib::Observer", %"class.QuantLib::Observable" }
%"class.QuantLib::CmsSpreadCouponPricer.base" = type { %"class.QuantLib::FloatingRateCouponPricer.base", %"class.QuantLib::Handle.57" }
%"class.QuantLib::FloatingRateCouponPricer.base" = type { ptr }
%"class.boost::shared_ptr.59" = type { ptr, %"class.boost::detail::shared_count" }
%"class.QuantLib::Handle" = type { %"class.boost::shared_ptr.51" }
%"class.boost::shared_ptr.51" = type { ptr, %"class.boost::detail::shared_count" }
%"class.boost::shared_ptr.60" = type { ptr, %"class.boost::detail::shared_count" }
%"class.boost::shared_ptr.62" = type { ptr, %"class.boost::detail::shared_count" }
%"class.boost::shared_ptr.63" = type { ptr, %"class.boost::detail::shared_count" }
%"class.QuantLib::Observer" = type { ptr, %"class.std::set" }
%"class.boost::shared_ptr.66" = type { ptr, %"class.boost::detail::shared_count" }
%"class.QuantLib::Coupon.base" = type { %"class.QuantLib::CashFlow.base", %"class.QuantLib::Date", double, %"class.QuantLib::Date", %"class.QuantLib::Date", %"class.QuantLib::Date", %"class.QuantLib::Date", %"class.QuantLib::Date", double }
%"class.QuantLib::CashFlow.base" = type <{ %"class.QuantLib::Event.base", %"class.QuantLib::LazyObject.base" }>
%"class.QuantLib::Event.base" = type { ptr }
%"class.QuantLib::LazyObject.base" = type <{ ptr, i8, i8, i8, i8 }>
%"class.boost::shared_ptr.65" = type { ptr, %"class.boost::detail::shared_count" }
%"class.QuantLib::FloatingRateCoupon" = type { %"class.QuantLib::Coupon.base", %"class.boost::shared_ptr.65", %"class.QuantLib::DayCounter", i32, double, double, i8, %"class.boost::shared_ptr.66", double, %"class.QuantLib::Observable", %"class.QuantLib::Observer" }

@.str.20 = private unnamed_addr constant [8 x i8] c"px != 0\00", align 1
@.str.21 = private unnamed_addr constant [102 x i8] c"generated/home/dtcxzyw/WorkSpace/SDK/vcpkg/installed/x64-linux/include/boost/smart_ptr/shared_ptr.hpp\00", align 1
@__PRETTY_FUNCTION__._ZNK5boost10shared_ptrIN8QuantLib17InterestRateIndexEEptEv = private unnamed_addr constant [151 x i8] c"typename boost::detail::sp_member_access<T>::type boost::shared_ptr<QuantLib::InterestRateIndex>::operator->() const [T = QuantLib::InterestRateIndex]\00", align 1

; Function Attrs: inlinehint mustprogress nounwind uwtable
define linkonce_odr noundef i64 @_ZNK8QuantLib4Date12serialNumberEv(ptr noundef nonnull align 8 dereferenceable(8) %this) #5 comdat align 2 {
entry:
  %this.addr = alloca ptr, align 8
  store ptr %this, ptr %this.addr, align 8, !tbaa !3
  %this1 = load ptr, ptr %this.addr, align 8
  %serialNumber_ = getelementptr inbounds nuw %"class.QuantLib::Date", ptr %this1, i32 0, i32 0
  %0 = load i64, ptr %serialNumber_, align 8, !tbaa !196
  ret i64 %0
}

; Function Attrs: inlinehint mustprogress nounwind uwtable
define linkonce_odr noundef nonnull align 8 dereferenceable(8) ptr @_ZSt3maxIdERKT_S2_S2_(ptr noundef nonnull align 8 dereferenceable(8) %__a, ptr noundef nonnull align 8 dereferenceable(8) %__b) #5 comdat {
entry:
  %retval = alloca ptr, align 8
  %__a.addr = alloca ptr, align 8
  %__b.addr = alloca ptr, align 8
  store ptr %__a, ptr %__a.addr, align 8, !tbaa !3
  store ptr %__b, ptr %__b.addr, align 8, !tbaa !3
  %0 = load ptr, ptr %__a.addr, align 8, !tbaa !3
  %1 = load double, ptr %0, align 8, !tbaa !20
  %2 = load ptr, ptr %__b.addr, align 8, !tbaa !3
  %3 = load double, ptr %2, align 8, !tbaa !20
  %cmp = fcmp olt double %1, %3
  br i1 %cmp, label %if.then, label %if.end

if.then:                                          ; preds = %entry
  %4 = load ptr, ptr %__b.addr, align 8, !tbaa !3
  store ptr %4, ptr %retval, align 8
  br label %return

if.end:                                           ; preds = %entry
  %5 = load ptr, ptr %__a.addr, align 8, !tbaa !3
  store ptr %5, ptr %retval, align 8
  br label %return

return:                                           ; preds = %if.end, %if.then
  %6 = load ptr, ptr %retval, align 8
  ret ptr %6
}

; Function Attrs: mustprogress uwtable
define linkonce_odr noundef ptr @_ZNK5boost10shared_ptrIN8QuantLib17InterestRateIndexEEptEv(ptr noundef nonnull align 8 dereferenceable(16) %this) #2 comdat align 2 {
entry:
  %this.addr = alloca ptr, align 8
  store ptr %this, ptr %this.addr, align 8, !tbaa !3
  %this1 = load ptr, ptr %this.addr, align 8
  %px = getelementptr inbounds nuw %"class.boost::shared_ptr.65", ptr %this1, i32 0, i32 0
  %0 = load ptr, ptr %px, align 8, !tbaa !149
  %cmp = icmp ne ptr %0, null
  %lnot = xor i1 %cmp, true
  %lnot2 = xor i1 %lnot, true
  %conv = zext i1 %lnot2 to i64
  %expval = call i64 @llvm.expect.i64(i64 %conv, i64 1)
  %tobool = icmp ne i64 %expval, 0
  br i1 %tobool, label %cond.true, label %cond.false

cond.true:                                        ; preds = %entry
  br label %cond.end

cond.false:                                       ; preds = %entry
  call void @_ZN5boost16assertion_failedEPKcS1_S1_l(ptr noundef @.str.20, ptr noundef @__PRETTY_FUNCTION__._ZNK5boost10shared_ptrIN8QuantLib17InterestRateIndexEEptEv, ptr noundef @.str.21, i64 noundef 784)
  br label %cond.end

cond.end:                                         ; preds = %cond.false, %cond.true
  %px3 = getelementptr inbounds nuw %"class.boost::shared_ptr.65", ptr %this1, i32 0, i32 0
  %1 = load ptr, ptr %px3, align 8, !tbaa !149
  ret ptr %1
}

; Function Attrs: inlinehint mustprogress nounwind uwtable
define linkonce_odr noundef nonnull align 8 dereferenceable(16) ptr @_ZNK8QuantLib18FloatingRateCoupon5indexEv(ptr noundef nonnull align 8 dereferenceable(176) %this) #5 comdat align 2 {
entry:
  %this.addr = alloca ptr, align 8
  store ptr %this, ptr %this.addr, align 8, !tbaa !3
  %this1 = load ptr, ptr %this.addr, align 8
  %index_ = getelementptr inbounds nuw %"class.QuantLib::FloatingRateCoupon", ptr %this1, i32 0, i32 1
  ret ptr %index_
}

; Function Attrs: inlinehint mustprogress nounwind uwtable
define linkonce_odr noundef zeroext i1 @_ZN8QuantLibleERKNS_4DateES2_(ptr noundef nonnull align 8 dereferenceable(8) %d1, ptr noundef nonnull align 8 dereferenceable(8) %d2) #5 comdat {
entry:
  %d1.addr = alloca ptr, align 8
  %d2.addr = alloca ptr, align 8
  store ptr %d1, ptr %d1.addr, align 8, !tbaa !3
  store ptr %d2, ptr %d2.addr, align 8, !tbaa !3
  %0 = load ptr, ptr %d1.addr, align 8, !tbaa !3
  %call = call noundef i64 @_ZNK8QuantLib4Date12serialNumberEv(ptr noundef nonnull align 8 dereferenceable(8) %0)
  %1 = load ptr, ptr %d2.addr, align 8, !tbaa !3
  %call1 = call noundef i64 @_ZNK8QuantLib4Date12serialNumberEv(ptr noundef nonnull align 8 dereferenceable(8) %1)
  %cmp = icmp sle i64 %call, %call1
  ret i1 %cmp
}

; Function Attrs: mustprogress uwtable
define noundef double @_ZNK8QuantLib24LognormalCmsSpreadPricer13floorletPriceEd(ptr noundef nonnull align 8 dereferenceable(424) %this, double noundef %effectiveFloor) unnamed_addr #2 align 2 {
entry:
  %retval = alloca double, align 8
  %this.addr = alloca ptr, align 8
  %effectiveFloor.addr = alloca double, align 8
  %Rs = alloca double, align 8
  %ref.tmp = alloca double, align 8
  %ref.tmp6 = alloca double, align 8
  %price = alloca double, align 8
  %floorletPrice = alloca double, align 8
  store ptr %this, ptr %this.addr, align 8, !tbaa !3
  store double %effectiveFloor, ptr %effectiveFloor.addr, align 8, !tbaa !20
  %this1 = load ptr, ptr %this.addr, align 8
  %fixingDate_ = getelementptr inbounds nuw %"class.QuantLib::LognormalCmsSpreadPricer", ptr %this1, i32 0, i32 5
  %today_ = getelementptr inbounds nuw %"class.QuantLib::LognormalCmsSpreadPricer", ptr %this1, i32 0, i32 4
  %call = call noundef zeroext i1 @_ZN8QuantLibleERKNS_4DateES2_(ptr noundef nonnull align 8 dereferenceable(8) %fixingDate_, ptr noundef nonnull align 8 dereferenceable(8) %today_)
  br i1 %call, label %if.then, label %if.else

if.then:                                          ; preds = %entry
  call void @llvm.lifetime.start.p0(i64 8, ptr %Rs) #15
  call void @llvm.lifetime.start.p0(i64 8, ptr %ref.tmp) #15
  %0 = load double, ptr %effectiveFloor.addr, align 8, !tbaa !20
  %coupon_ = getelementptr inbounds nuw %"class.QuantLib::LognormalCmsSpreadPricer", ptr %this1, i32 0, i32 3
  %1 = load ptr, ptr %coupon_, align 8, !tbaa !71
  %call2 = call noundef nonnull align 8 dereferenceable(16) ptr @_ZNK8QuantLib18FloatingRateCoupon5indexEv(ptr noundef nonnull align 8 dereferenceable(176) %1)
  %call3 = call noundef ptr @_ZNK5boost10shared_ptrIN8QuantLib17InterestRateIndexEEptEv(ptr noundef nonnull align 8 dereferenceable(16) %call2)
  %fixingDate_4 = getelementptr inbounds nuw %"class.QuantLib::LognormalCmsSpreadPricer", ptr %this1, i32 0, i32 5
  %vtable = load ptr, ptr %call3, align 8, !tbaa !12
  %vfn = getelementptr inbounds ptr, ptr %vtable, i64 5
  %2 = load ptr, ptr %vfn, align 8
  %call5 = call noundef double %2(ptr noundef nonnull align 8 dereferenceable(240) %call3, ptr noundef nonnull align 8 dereferenceable(8) %fixingDate_4, i1 noundef zeroext false)
  %sub = fsub double %0, %call5
  store double %sub, ptr %ref.tmp, align 8, !tbaa !20
  call void @llvm.lifetime.start.p0(i64 8, ptr %ref.tmp6) #15
  store double 0.000000e+00, ptr %ref.tmp6, align 8, !tbaa !20
  %call7 = call noundef nonnull align 8 dereferenceable(8) ptr @_ZSt3maxIdERKT_S2_S2_(ptr noundef nonnull align 8 dereferenceable(8) %ref.tmp, ptr noundef nonnull align 8 dereferenceable(8) %ref.tmp6)
  %3 = load double, ptr %call7, align 8, !tbaa !20
  call void @llvm.lifetime.end.p0(i64 8, ptr %ref.tmp6) #15
  call void @llvm.lifetime.end.p0(i64 8, ptr %ref.tmp) #15
  store double %3, ptr %Rs, align 8, !tbaa !20
  call void @llvm.lifetime.start.p0(i64 8, ptr %price) #15
  %gearing_ = getelementptr inbounds nuw %"class.QuantLib::LognormalCmsSpreadPricer", ptr %this1, i32 0, i32 8
  %4 = load double, ptr %gearing_, align 8, !tbaa !72
  %5 = load double, ptr %Rs, align 8, !tbaa !20
  %mul = fmul double %4, %5
  %coupon_8 = getelementptr inbounds nuw %"class.QuantLib::LognormalCmsSpreadPricer", ptr %this1, i32 0, i32 3
  %6 = load ptr, ptr %coupon_8, align 8, !tbaa !71
  %call9 = call noundef double @_ZNK8QuantLib6Coupon13accrualPeriodEv(ptr noundef nonnull align 8 dereferenceable(88) %6)
  %mul10 = fmul double %mul, %call9
  %discount_ = getelementptr inbounds nuw %"class.QuantLib::LognormalCmsSpreadPricer", ptr %this1, i32 0, i32 11
  %7 = load double, ptr %discount_, align 8, !tbaa !75
  %mul11 = fmul double %mul10, %7
  store double %mul11, ptr %price, align 8, !tbaa !20
  %8 = load double, ptr %price, align 8, !tbaa !20
  store double %8, ptr %retval, align 8
  call void @llvm.lifetime.end.p0(i64 8, ptr %price) #15
  call void @llvm.lifetime.end.p0(i64 8, ptr %Rs) #15
  br label %return

if.else:                                          ; preds = %entry
  call void @llvm.lifetime.start.p0(i64 8, ptr %floorletPrice) #15
  %9 = load double, ptr %effectiveFloor.addr, align 8, !tbaa !20
  %call12 = call noundef double @_ZNK8QuantLib24LognormalCmsSpreadPricer14optionletPriceENS_6Option4TypeEd(ptr noundef nonnull align 8 dereferenceable(424) %this1, i32 noundef -1, double noundef %9)
  store double %call12, ptr %floorletPrice, align 8, !tbaa !20
  %gearing_13 = getelementptr inbounds nuw %"class.QuantLib::LognormalCmsSpreadPricer", ptr %this1, i32 0, i32 8
  %10 = load double, ptr %gearing_13, align 8, !tbaa !72
  %11 = load double, ptr %floorletPrice, align 8, !tbaa !20
  %mul14 = fmul double %10, %11
  store double %mul14, ptr %retval, align 8
  call void @llvm.lifetime.end.p0(i64 8, ptr %floorletPrice) #15
  br label %return

return:                                           ; preds = %if.else, %if.then
  %12 = load double, ptr %retval, align 8
  ret double %12
}