; Function Attrs: mustprogress uwtable
define noundef double @_ZNK8QuantLib24LognormalCmsSpreadPricer13floorletPriceEd(ptr noundef nonnull align 8 dereferenceable(424) %this, double noundef %effectiveFloor) unnamed_addr #7 align 2 {
entry:
  %fixingDate_ = getelementptr inbounds nuw i8, ptr %this, i64 72
  %today_ = getelementptr inbounds nuw i8, ptr %this, i64 64
  %0 = load i64, ptr %fixingDate_, align 8, !tbaa !150
  %1 = load i64, ptr %today_, align 8, !tbaa !150
  %cmp.i.not = icmp sgt i64 %0, %1
  br i1 %cmp.i.not, label %if.else, label %if.then

if.then:                                          ; preds = %entry
  %coupon_ = getelementptr inbounds nuw i8, ptr %this, i64 56
  %2 = load ptr, ptr %coupon_, align 8, !tbaa !135
  %index_.i = getelementptr inbounds nuw i8, ptr %2, i64 88
  %3 = load ptr, ptr %index_.i, align 8, !tbaa !259
  %cmp.not.i = icmp eq ptr %3, null
  br i1 %cmp.not.i, label %cond.false.i, label %_ZNK5boost10shared_ptrIN8QuantLib17InterestRateIndexEEptEv.exit, !prof !41

cond.false.i:                                     ; preds = %if.then
  tail call void @_ZN5boost16assertion_failedEPKcS1_S1_l(ptr noundef nonnull @.str.20, ptr noundef nonnull @__PRETTY_FUNCTION__._ZNK5boost10shared_ptrIN8QuantLib17InterestRateIndexEEptEv, ptr noundef nonnull @.str.21, i64 noundef 784)
  %.pre.i = load ptr, ptr %index_.i, align 8, !tbaa !259
  br label %_ZNK5boost10shared_ptrIN8QuantLib17InterestRateIndexEEptEv.exit

_ZNK5boost10shared_ptrIN8QuantLib17InterestRateIndexEEptEv.exit: ; preds = %if.then, %cond.false.i
  %4 = phi ptr [ %3, %if.then ], [ %.pre.i, %cond.false.i ]
  %vtable = load ptr, ptr %4, align 8, !tbaa !35
  %vfn = getelementptr inbounds i8, ptr %vtable, i64 40
  %5 = load ptr, ptr %vfn, align 8
  %call5 = tail call noundef double %5(ptr noundef nonnull align 8 dereferenceable(240) %4, ptr noundef nonnull align 8 dereferenceable(8) %fixingDate_, i1 noundef zeroext false)
  %sub = fsub double %effectiveFloor, %call5
  %cmp.i2 = fcmp olt double %sub, 0.000000e+00
  %.sroa.speculated = select i1 %cmp.i2, double 0.000000e+00, double %sub
  %gearing_ = getelementptr inbounds nuw i8, ptr %this, i64 96
  %6 = load double, ptr %gearing_, align 8, !tbaa !147
  %mul = fmul double %6, %.sroa.speculated
  %7 = load ptr, ptr %coupon_, align 8, !tbaa !135
  %call9 = tail call noundef double @_ZNK8QuantLib6Coupon13accrualPeriodEv(ptr noundef nonnull align 8 dereferenceable(88) %7)
  %mul10 = fmul double %call9, %mul
  %discount_ = getelementptr inbounds nuw i8, ptr %this, i64 120
  %8 = load double, ptr %discount_, align 8, !tbaa !182
  %mul11 = fmul double %8, %mul10
  br label %return

if.else:                                          ; preds = %entry
  %call12 = tail call noundef double @_ZNK8QuantLib24LognormalCmsSpreadPricer14optionletPriceENS_6Option4TypeEd(ptr noundef nonnull align 8 dereferenceable(424) %this, i32 noundef -1, double noundef %effectiveFloor)
  %gearing_13 = getelementptr inbounds nuw i8, ptr %this, i64 96
  %9 = load double, ptr %gearing_13, align 8, !tbaa !147
  %mul14 = fmul double %call12, %9
  br label %return

return:                                           ; preds = %if.else, %_ZNK5boost10shared_ptrIN8QuantLib17InterestRateIndexEEptEv.exit
  %retval.0 = phi double [ %mul11, %_ZNK5boost10shared_ptrIN8QuantLib17InterestRateIndexEEptEv.exit ], [ %mul14, %if.else ]
  ret double %retval.0
}